(lp1
(igrid
Grid
p2
(dp3
S'cells'
p4
(lp5
ccopy_reg
_reconstructor
p6
(cgrid
Cell
p7
c__builtin__
object
p8
NtRp9
(dp10
S'number'
p11
I0
sS'_q'
p12
F0
sS'_p'
p13
F0
sbag6
(g7
g8
NtRp14
(dp15
g11
I1
sg12
F0
sg13
F0
sbag6
(g7
g8
NtRp16
(dp17
g11
I2
sg12
F0
sg13
F0
sbag6
(g7
g8
NtRp18
(dp19
g11
I3
sg12
F0
sg13
F0
sbag6
(g7
g8
NtRp20
(dp21
g11
I4
sg12
F0
sg13
F0
sbag6
(g7
g8
NtRp22
(dp23
g11
I5
sg12
F0
sg13
F0
sbag6
(g7
g8
NtRp24
(dp25
g11
I6
sg12
F0
sg13
F0
sbag6
(g7
g8
NtRp26
(dp27
g11
I7
sg12
F0
sg13
F0
sbag6
(g7
g8
NtRp28
(dp29
g11
I8
sg12
F0
sg13
F0
sbag6
(g7
g8
NtRp30
(dp31
g11
I9
sg12
F0
sg13
F0
sbag6
(g7
g8
NtRp32
(dp33
g11
I10
sg12
F0
sg13
F0
sbasS'numberOfCells'
p34
I11
sS'time'
p35
I0
sba(igrid
Grid
p36
(dp37
g4
(lp38
g6
(g7
g8
NtRp39
(dp40
g11
I0
sg12
F0.027000000000000003
sg13
F0.013500000000000002
sbag6
(g7
g8
NtRp41
(dp42
g11
I1
sg12
I0
sg13
I0
sbag6
(g7
g8
NtRp43
(dp44
g11
I2
sg12
I0
sg13
I0
sbag6
(g7
g8
NtRp45
(dp46
g11
I3
sg12
I0
sg13
I0
sbag6
(g7
g8
NtRp47
(dp48
g11
I4
sg12
I0
sg13
I0
sbag6
(g7
g8
NtRp49
(dp50
g11
I5
sg12
I0
sg13
I0
sbag6
(g7
g8
NtRp51
(dp52
g11
I6
sg12
I0
sg13
I0
sbag6
(g7
g8
NtRp53
(dp54
g11
I7
sg12
I0
sg13
I0
sbag6
(g7
g8
NtRp55
(dp56
g11
I8
sg12
I0
sg13
I0
sbag6
(g7
g8
NtRp57
(dp58
g11
I9
sg12
I0
sg13
I0
sbag6
(g7
g8
NtRp59
(dp60
g11
I10
sg12
I0
sg13
I0
sbasg34
I11
sg35
I0
sba(igrid
Grid
p61
(dp62
g4
(lp63
g6
(g7
g8
NtRp64
(dp65
g11
I0
sg12
F0.040500000000000008
sg13
F0.020250000000000004
sbag6
(g7
g8
NtRp66
(dp67
g11
I1
sg12
F0.0072900000000000013
sg13
F0.0036450000000000007
sbag6
(g7
g8
NtRp68
(dp69
g11
I2
sg12
I0
sg13
I0
sbag6
(g7
g8
NtRp70
(dp71
g11
I3
sg12
I0
sg13
I0
sbag6
(g7
g8
NtRp72
(dp73
g11
I4
sg12
I0
sg13
I0
sbag6
(g7
g8
NtRp74
(dp75
g11
I5
sg12
I0
sg13
I0
sbag6
(g7
g8
NtRp76
(dp77
g11
I6
sg12
I0
sg13
I0
sbag6
(g7
g8
NtRp78
(dp79
g11
I7
sg12
I0
sg13
I0
sbag6
(g7
g8
NtRp80
(dp81
g11
I8
sg12
I0
sg13
I0
sbag6
(g7
g8
NtRp82
(dp83
g11
I9
sg12
I0
sg13
I0
sbag6
(g7
g8
NtRp84
(dp85
g11
I10
sg12
I0
sg13
I0
sbasg34
I11
sg35
I0
sba(igrid
Grid
p86
(dp87
g4
(lp88
g6
(g7
g8
NtRp89
(dp90
g11
I0
sg12
F0.048926700000000004
sg13
F0.024463350000000002
sbag6
(g7
g8
NtRp91
(dp92
g11
I1
sg12
F0.014580000000000003
sg13
F0.0072900000000000013
sbag6
(g7
g8
NtRp93
(dp94
g11
I2
sg12
F0.0019683000000000005
sg13
F0.00098415000000000026
sbag6
(g7
g8
NtRp95
(dp96
g11
I3
sg12
I0
sg13
I0
sbag6
(g7
g8
NtRp97
(dp98
g11
I4
sg12
I0
sg13
I0
sbag6
(g7
g8
NtRp99
(dp100
g11
I5
sg12
I0
sg13
I0
sbag6
(g7
g8
NtRp101
(dp102
g11
I6
sg12
I0
sg13
I0
sbag6
(g7
g8
NtRp103
(dp104
g11
I7
sg12
I0
sg13
I0
sbag6
(g7
g8
NtRp105
(dp106
g11
I8
sg12
I0
sg13
I0
sbag6
(g7
g8
NtRp107
(dp108
g11
I9
sg12
I0
sg13
I0
sbag6
(g7
g8
NtRp109
(dp110
g11
I10
sg12
I0
sg13
I0
sbasg34
I11
sg35
I0
sba(igrid
Grid
p111
(dp112
g4
(lp113
g6
(g7
g8
NtRp114
(dp115
g11
I0
sg12
F0.054816750000000004
sg13
F0.027408375000000002
sbag6
(g7
g8
NtRp116
(dp117
g11
I1
sg12
F0.020952918000000004
sg13
F0.010476459000000002
sbag6
(g7
g8
NtRp118
(dp119
g11
I2
sg12
F0.0049207500000000015
sg13
F0.0024603750000000008
sbag6
(g7
g8
NtRp120
(dp121
g11
I3
sg12
F0.00053144100000000012
sg13
F0.00026572050000000006
sbag6
(g7
g8
NtRp122
(dp123
g11
I4
sg12
I0
sg13
I0
sbag6
(g7
g8
NtRp124
(dp125
g11
I5
sg12
I0
sg13
I0
sbag6
(g7
g8
NtRp126
(dp127
g11
I6
sg12
I0
sg13
I0
sbag6
(g7
g8
NtRp128
(dp129
g11
I7
sg12
I0
sg13
I0
sbag6
(g7
g8
NtRp130
(dp131
g11
I8
sg12
I0
sg13
I0
sbag6
(g7
g8
NtRp132
(dp133
g11
I9
sg12
I0
sg13
I0
sbag6
(g7
g8
NtRp134
(dp135
g11
I10
sg12
I0
sg13
I0
sbasg34
I11
sg35
I0
sba(igrid
Grid
p136
(dp137
g4
(lp138
g6
(g7
g8
NtRp139
(dp140
g11
I0
sg12
F0.059227546140000004
sg13
F0.029613773070000002
sbag6
(g7
g8
NtRp141
(dp142
g11
I1
sg12
F0.026408754000000003
sg13
F0.013204377000000002
sbag6
(g7
g8
NtRp143
(dp144
g11
I2
sg12
F0.0082398942900000025
sg13
F0.0041199471450000013
sbag6
(g7
g8
NtRp145
(dp146
g11
I3
sg12
F0.0015943230000000004
sg13
F0.00079716150000000018
sbag6
(g7
g8
NtRp147
(dp148
g11
I4
sg12
F0.00014348907000000003
sg13
F7.1744535000000013e-05
sbag6
(g7
g8
NtRp149
(dp150
g11
I5
sg12
I0
sg13
I0
sbag6
(g7
g8
NtRp151
(dp152
g11
I6
sg12
I0
sg13
I0
sbag6
(g7
g8
NtRp153
(dp154
g11
I7
sg12
I0
sg13
I0
sbag6
(g7
g8
NtRp155
(dp156
g11
I8
sg12
I0
sg13
I0
sbag6
(g7
g8
NtRp157
(dp158
g11
I9
sg12
I0
sg13
I0
sbag6
(g7
g8
NtRp159
(dp160
g11
I10
sg12
I0
sg13
I0
sbasg34
I11
sg35
I0
sba(igrid
Grid
p161
(dp162
g4
(lp163
g6
(g7
g8
NtRp164
(dp165
g11
I0
sg12
F0.062687786490000008
sg13
F0.031343893245000004
sbag6
(g7
g8
NtRp166
(dp167
g11
I1
sg12
F0.031090990144500001
sg13
F0.015545495072250001
sbag6
(g7
g8
NtRp168
(dp169
g11
I2
sg12
F0.011617005015000003
sg13
F0.0058085025075000013
sbag6
(g7
g8
NtRp170
(dp171
g11
I3
sg12
F0.0030549354444000007
sg13
F0.0015274677222000003
sbag6
(g7
g8
NtRp172
(dp173
g11
I4
sg12
F0.00050221174500000008
sg13
F0.00025110587250000004
sbag6
(g7
g8
NtRp174
(dp175
g11
I5
sg12
F3.8742048900000005e-05
sg13
F1.9371024450000003e-05
sbag6
(g7
g8
NtRp176
(dp177
g11
I6
sg12
I0
sg13
I0
sbag6
(g7
g8
NtRp178
(dp179
g11
I7
sg12
I0
sg13
I0
sbag6
(g7
g8
NtRp180
(dp181
g11
I8
sg12
I0
sg13
I0
sbag6
(g7
g8
NtRp182
(dp183
g11
I9
sg12
I0
sg13
I0
sbag6
(g7
g8
NtRp184
(dp185
g11
I10
sg12
I0
sg13
I0
sbasg34
I11
sg35
I0
sba(igrid
Grid
p186
(dp187
g4
(lp188
g6
(g7
g8
NtRp189
(dp190
g11
I0
sg12
F0.065494820978235002
sg13
F0.032747410489117501
sbag6
(g7
g8
NtRp191
(dp192
g11
I1
sg12
F0.035143108578000001
sg13
F0.017571554289000001
sbag6
(g7
g8
NtRp193
(dp194
g11
I2
sg12
F0.014905704998727003
sg13
F0.0074528524993635013
sbag6
(g7
g8
NtRp195
(dp196
g11
I3
sg12
F0.0047795677776000011
sg13
F0.0023897838888000005
sbag6
(g7
g8
NtRp197
(dp198
g11
I4
sg12
F0.0010848491137350003
sg13
F0.00054242455686750015
sbag6
(g7
g8
NtRp199
(dp200
g11
I5
sg12
F0.00015496819560000002
sg13
F7.7484097800000011e-05
sbag6
(g7
g8
NtRp201
(dp202
g11
I6
sg12
F1.0460353203000001e-05
sg13
F5.2301766015000006e-06
sbag6
(g7
g8
NtRp203
(dp204
g11
I7
sg12
I0
sg13
I0
sbag6
(g7
g8
NtRp205
(dp206
g11
I8
sg12
I0
sg13
I0
sbag6
(g7
g8
NtRp207
(dp208
g11
I9
sg12
I0
sg13
I0
sbag6
(g7
g8
NtRp209
(dp210
g11
I10
sg12
I0
sg13
I0
sbasg34
I11
sg35
I0
sba(igrid
Grid
p211
(dp212
g4
(lp213
g6
(g7
g8
NtRp214
(dp215
g11
I0
sg12
F0.067830325462057514
sg13
F0.033915162731028757
sbag6
(g7
g8
NtRp216
(dp217
g11
I1
sg12
F0.038683468102830666
sg13
F0.019341734051415333
sbag6
(g7
g8
NtRp218
(dp219
g11
I2
sg12
F0.018040792404271502
sg13
F0.0090203962021357508
sbag6
(g7
g8
NtRp220
(dp221
g11
I3
sg12
F0.0066638395346153411
sg13
F0.0033319197673076706
sbag6
(g7
g8
NtRp222
(dp223
g11
I4
sg12
F0.0018685505418075004
sg13
F0.00093427527090375021
sbag6
(g7
g8
NtRp224
(dp225
g11
I5
sg12
F0.00037279923974514013
sg13
F0.00018639961987257006
sbag6
(g7
g8
NtRp226
(dp227
g11
I6
sg12
F4.7071589413500006e-05
sg13
F2.3535794706750003e-05
sbag6
(g7
g8
NtRp228
(dp229
g11
I7
sg12
F2.8242953648100002e-06
sg13
F1.4121476824050001e-06
sbag6
(g7
g8
NtRp230
(dp231
g11
I8
sg12
I0
sg13
I0
sbag6
(g7
g8
NtRp232
(dp233
g11
I9
sg12
I0
sg13
I0
sbag6
(g7
g8
NtRp234
(dp235
g11
I10
sg12
I0
sg13
I0
sbasg34
I11
sg35
I0
sba(igrid
Grid
p236
(dp237
g4
(lp238
g6
(g7
g8
NtRp239
(dp240
g11
I0
sg12
F0.069812360394679807
sg13
F0.034906180197339903
sbag6
(g7
g8
NtRp241
(dp242
g11
I1
sg12
F0.041805304179153305
sg13
F0.020902652089576652
sbag6
(g7
g8
NtRp243
(dp244
g11
I2
sg12
F0.02099761568286156
sg13
F0.01049880784143078
sbag6
(g7
g8
NtRp245
(dp246
g11
I3
sg12
F0.0086327003410767
sg13
F0.00431635017053835
sbag6
(g7
g8
NtRp247
(dp248
g11
I4
sg12
F0.0028192557703912748
sg13
F0.0014096278851956374
sbag6
(g7
g8
NtRp249
(dp250
g11
I5
sg12
F0.00070173473172570019
sg13
F0.00035086736586285009
sbag6
(g7
g8
NtRp251
(dp252
g11
I6
sg12
F0.00012484117737184415
sg13
F6.2420588685922074e-05
sbag6
(g7
g8
NtRp253
(dp254
g11
I7
sg12
F1.4121476824050002e-05
sg13
F7.060738412025001e-06
sbag6
(g7
g8
NtRp255
(dp256
g11
I8
sg12
F7.6255974849870008e-07
sg13
F3.8127987424935004e-07
sbag6
(g7
g8
NtRp257
(dp258
g11
I9
sg12
I0
sg13
I0
sbag6
(g7
g8
NtRp259
(dp260
g11
I10
sg12
I0
sg13
I0
sbasg34
I11
sg35
I0
sba(igrid
Grid
p261
(dp262
g4
(lp263
g6
(g7
g8
NtRp264
(dp265
g11
I0
sg12
F0.071521400158545148
sg13
F0.035760700079272574
sbag6
(g7
g8
NtRp266
(dp267
g11
I1
sg12
F0.044581441003198358
sg13
F0.022290720501599179
sbag6
(g7
g8
NtRp268
(dp269
g11
I2
sg12
F0.023771761048249813
sg13
F0.011885880524124906
sbag6
(g7
g8
NtRp270
(dp271
g11
I3
sg12
F0.010634135232100963
sg13
F0.0053170676160504814
sbag6
(g7
g8
NtRp272
(dp273
g11
I4
sg12
F0.0039018559655832575
sg13
F0.0019509279827916288
sbag6
(g7
g8
NtRp274
(dp275
g11
I5
sg12
F0.0011407798946640186
sg13
F0.00057038994733200931
sbag6
(g7
g8
NtRp276
(dp277
g11
I6
sg12
F0.00025513690592139264
sg13
F0.00012756845296069632
sbag6
(g7
g8
NtRp278
(dp279
g11
I7
sg12
F4.0943245044577617e-05
sg13
F2.0471622522288809e-05
sbag6
(g7
g8
NtRp280
(dp281
g11
I8
sg12
F4.1940786167428502e-06
sg13
F2.0970393083714251e-06
sbag6
(g7
g8
NtRp282
(dp283
g11
I9
sg12
F2.0589113209464903e-07
sg13
F1.0294556604732451e-07
sbag6
(g7
g8
NtRp284
(dp285
g11
I10
sg12
I0
sg13
I0
sbasg34
I11
sg35
I0
sba(igrid
Grid
p286
(dp287
g4
(lp288
g6
(g7
g8
NtRp289
(dp290
g11
I0
sg12
F0.073014431510008193
sg13
F0.036507215755004097
sbag6
(g7
g8
NtRp291
(dp292
g11
I1
sg12
F0.047069003585503824
sg13
F0.023534501792751912
sbag6
(g7
g8
NtRp293
(dp294
g11
I2
sg12
F0.026368720698371685
sg13
F0.013184360349185843
sbag6
(g7
g8
NtRp295
(dp296
g11
I3
sg12
F0.012632869971162081
sg13
F0.0063164349855810405
sbag6
(g7
g8
NtRp297
(dp298
g11
I4
sg12
F0.0050845238712316125
sg13
F0.0025422619356158063
sbag6
(g7
g8
NtRp299
(dp300
g11
I5
sg12
F0.0016825725464014092
sg13
F0.00084128627320070458
sbag6
(g7
g8
NtRp301
(dp302
g11
I6
sg12
F0.00044499597088023418
sg13
F0.00022249798544011709
sbag6
(g7
g8
NtRp303
(dp304
g11
I7
sg12
F9.0323225202915665e-05
sg13
F4.5161612601457832e-05
sbag6
(g7
g8
NtRp305
(dp306
g11
I8
sg12
F1.3199070430789151e-05
sg13
F6.5995352153945755e-06
sbag6
(g7
g8
NtRp307
(dp308
g11
I9
sg12
F1.2353467925678941e-06
sg13
F6.1767339628394703e-07
sbag6
(g7
g8
NtRp309
(dp310
g11
I10
sg12
F5.5590605665555239e-08
sg13
F2.779530283277762e-08
sbasg34
I11
sg35
I0
sba(igrid
Grid
p311
(dp312
g4
(lp313
g6
(g7
g8
NtRp314
(dp315
g11
I0
sg12
F0.074333086579669971
sg13
F0.037166543289834986
sbag6
(g7
g8
NtRp316
(dp317
g11
I1
sg12
F0.049313204061079613
sg13
F0.024656602030539806
sbag6
(g7
g8
NtRp318
(dp319
g11
I2
sg12
F0.028798551410639157
sg13
F0.014399275705319578
sbag6
(g7
g8
NtRp320
(dp321
g11
I3
sg12
F0.014605430064524666
sg13
F0.007302715032262333
sbag6
(g7
g8
NtRp322
(dp323
g11
I4
sg12
F0.0063401285135018916
sg13
F0.0031700642567509458
sbag6
(g7
g8
NtRp324
(dp325
g11
I5
sg12
F0.0023164567917356937
sg13
F0.0011582283958678468
sbag6
(g7
g8
NtRp326
(dp327
g11
I6
sg12
F0.00069756691476516818
sg13
F0.00034878345738258409
sbag6
(g7
g8
NtRp328
(dp329
g11
I7
sg12
F0.00016834631093820256
sg13
F8.4173155469101279e-05
sbag6
(g7
g8
NtRp330
(dp331
g11
I8
sg12
F3.1270935782472416e-05
sg13
F1.5635467891236208e-05
sbag6
(g7
g8
NtRp332
(dp333
g11
I9
sg12
F4.1942082519000953e-06
sg13
F2.0971041259500477e-06
sbag6
(g7
g8
NtRp334
(dp335
g11
I10
sg12
F3.6133893682610899e-07
sg13
F1.806694684130545e-07
sbasg34
I11
sg35
I0
sba(igrid
Grid
p336
(dp337
g4
(lp338
g6
(g7
g8
NtRp339
(dp340
g11
I0
sg12
F0.075508580223883293
sg13
F0.037754290111941646
sbag6
(g7
g8
NtRp341
(dp342
g11
I1
sg12
F0.051350202231497707
sg13
F0.025675101115748854
sbag6
(g7
g8
NtRp343
(dp344
g11
I2
sg12
F0.031073089716651747
sg13
F0.015536544858325873
sbag6
(g7
g8
NtRp345
(dp346
g11
I3
sg12
F0.016536553471240341
sg13
F0.0082682767356201704
sbag6
(g7
g8
NtRp347
(dp348
g11
I4
sg12
F0.0076463154362718154
sg13
F0.0038231577181359077
sbag6
(g7
g8
NtRp349
(dp350
g11
I5
sg12
F0.0030305034849093461
sg13
F0.0015152517424546731
sbag6
(g7
g8
NtRp351
(dp352
g11
I6
sg12
F0.0010129464426670079
sg13
F0.00050647322133350395
sbag6
(g7
g8
NtRp353
(dp354
g11
I7
sg12
F0.00027970853768566535
sg13
F0.00013985426884283267
sbag6
(g7
g8
NtRp355
(dp356
g11
I8
sg12
F6.2053639742487918e-05
sg13
F3.1026819871243959e-05
sbag6
(g7
g8
NtRp357
(dp358
g11
I9
sg12
F1.0623364742687606e-05
sg13
F5.3116823713438031e-06
sbag6
(g7
g8
NtRp359
(dp360
g11
I10
sg12
F1.3131056964260803e-06
sg13
F6.5655284821304016e-07
sbasg34
I11
sg35
I0
sba(igrid
Grid
p361
(dp362
g4
(lp363
g6
(g7
g8
NtRp364
(dp365
g11
I0
sg12
F0.076564836625186136
sg13
F0.038282418312593068
sbag6
(g7
g8
NtRp366
(dp367
g11
I1
sg12
F0.053209228411027244
sg13
F0.026604614205513622
sbag6
(g7
g8
NtRp368
(dp369
g11
I2
sg12
F0.033204506759215532
sg13
F0.016602253379607766
sbag6
(g7
g8
NtRp370
(dp371
g11
I3
sg12
F0.018416663509458659
sg13
F0.0092083317547293295
sbag6
(g7
g8
NtRp372
(dp373
g11
I4
sg12
F0.0089850429568999503
sg13
F0.0044925214784499751
sbag6
(g7
g8
NtRp374
(dp375
g11
I5
sg12
F0.0038127345920614748
sg13
F0.0019063672960307374
sbag6
(g7
g8
NtRp376
(dp377
g11
I6
sg12
F0.0013890421259267303
sg13
F0.00069452106296336513
sbag6
(g7
g8
NtRp378
(dp379
g11
I7
sg12
F0.00042762214550369704
sg13
F0.00021381107275184852
sbag6
(g7
g8
NtRp380
(dp381
g11
I8
sg12
F0.00010899149893719175
sg13
F5.4495749468595873e-05
sbag6
(g7
g8
NtRp382
(dp383
g11
I9
sg12
F2.2368179411993539e-05
sg13
F1.1184089705996769e-05
sbag6
(g7
g8
NtRp384
(dp385
g11
I10
sg12
F3.5248613287386939e-06
sg13
F1.7624306643693469e-06
sbasg34
I11
sg35
I0
sba(igrid
Grid
p386
(dp387
g4
(lp388
g6
(g7
g8
NtRp389
(dp390
g11
I0
sg12
F0.077520540847129338
sg13
F0.038760270423564669
sbag6
(g7
g8
NtRp391
(dp392
g11
I1
sg12
F0.054914156648933454
sg13
F0.027457078324466727
sbag6
(g7
g8
NtRp393
(dp394
g11
I2
sg12
F0.035204577657760618
sg13
F0.017602288828880309
sbag6
(g7
g8
NtRp395
(dp396
g11
I3
sg12
F0.020240108459804514
sg13
F0.010120054229902257
sbag6
(g7
g8
NtRp397
(dp398
g11
I4
sg12
F0.010341949582177951
sg13
F0.0051709747910889756
sbag6
(g7
g8
NtRp399
(dp400
g11
I5
sg12
F0.0046518085833568718
sg13
F0.0023259042916784359
sbag6
(g7
g8
NtRp401
(dp402
g11
I6
sg12
F0.0018223124962858139
sg13
F0.00091115624814290693
sbag6
(g7
g8
NtRp403
(dp404
g11
I7
sg12
F0.00061392049150761987
sg13
F0.00030696024575380994
sbag6
(g7
g8
NtRp405
(dp406
g11
I8
sg12
F0.00017509841001935259
sg13
F8.7549205009676293e-05
sbag6
(g7
g8
NtRp407
(dp408
g11
I9
sg12
F4.1422512524648445e-05
sg13
F2.0711256262324222e-05
sbag6
(g7
g8
NtRp409
(dp410
g11
I10
sg12
F7.8018391056076024e-06
sg13
F3.9009195528038012e-06
sbasg34
I11
sg35
I0
sba.